(dp0
S'common'
p1
(dp2
S'y'
p3
(lp4
F62.79059579372406
asS'x'
p5
(lp6
I5000
asS'result'
p7
cnumpy.core.multiarray
scalar
p8
(cnumpy
dtype
p9
(S'f8'
p10
I0
I1
tp11
Rp12
(I3
S'<'
p13
NNNI-1
I-1
I0
tp14
bS'\xe6\x1f\xa6\xcaI)\xd3\xc0'
p15
tp16
Rp17
ss.