(dp0
S'shallow_water'
p1
(dp2
S'y'
p3
(lp4
F47.72118401527405
aF55.894975900650024
aF67.2248330116272
aF79.40084409713745
aF93.97694993019104
aF108.68992781639099
aF132.00871396064758
aF163.17119908332825
aF215.58860301971436
aF459.2140119075775
asS'x'
p5
(lp6
I100
aI200
aI300
aI400
aI500
aI600
aI700
aI800
aI900
aI1000
asS'result'
p7
cnumpy.core.multiarray
scalar
p8
(cnumpy
dtype
p9
(S'f8'
p10
I0
I1
tp11
Rp12
(I3
S'<'
p13
NNNI-1
I-1
I0
tp14
bS'\x04md\x03u\x85.A'
p15
tp16
Rp17
ss.